target datalayout = "e-m:e-p270:32:32-p271:32:32-p272:64:64-i64:64-i128:128-f80:128-n8:16:32:64-S128"
target triple = "x86_64-pc-linux-gnu"

%struct._asn1_ctx_t = type { i32, i32, i8, ptr, ptr, ptr, ptr, ptr, %struct.anon.1, %struct.anon.4, %struct.anon.5, ptr }
%struct.anon.1 = type { i32, i8, i8, i8, ptr, ptr, i32, i32, ptr, ptr, ptr, %union.anon }
%union.anon = type { %struct.anon.2 }
%struct.anon.2 = type { ptr }
%struct.anon.4 = type { ptr, ptr, ptr }
%struct.anon.5 = type { i32, i8, ptr, i32, i32, ptr, ptr, ptr, %union.anon.6 }
%union.anon.6 = type { %struct.anon.7 }
%struct.anon.7 = type { ptr }

@hf_camel_PDPAddress_IPv4 = internal global i32 0, align 4
@hf_camel_PDPAddress_IPv6 = internal global i32 0, align 4
@ett_camel_pdptypenumber = internal global i32 0, align 4
@PDPTypeOrganization = internal global i8 0, align 1
@PDPTypeNumber = internal global i8 0, align 1

; Function Attrs: null_pointer_is_valid sspstrong uwtable
define internal i32 @dissect_camel_T_pDPAddress(i1 noundef zeroext %0, ptr noundef %1, i32 noundef %2, ptr noundef %3, ptr noundef %4, i32 noundef %5) #0 {
  %7 = alloca i32, align 4
  %8 = alloca i8, align 1
  %9 = alloca ptr, align 8
  %10 = alloca i32, align 4
  %11 = alloca ptr, align 8
  %12 = alloca ptr, align 8
  %13 = alloca i32, align 4
  %14 = alloca ptr, align 8
  %15 = alloca ptr, align 8
  %16 = alloca i32, align 4
  %17 = zext i1 %0 to i8
  store i8 %17, ptr %8, align 1
  store ptr %1, ptr %9, align 8
  store i32 %2, ptr %10, align 4
  store ptr %3, ptr %11, align 8
  store ptr %4, ptr %12, align 8
  store i32 %5, ptr %13, align 4
  call void @llvm.lifetime.start.p0(i64 8, ptr %14) #11
  call void @llvm.lifetime.start.p0(i64 8, ptr %15) #11
  %18 = load i8, ptr %8, align 1, !range !6, !noundef !7
  %19 = trunc i8 %18 to i1
  %20 = load ptr, ptr %11, align 8
  %21 = load ptr, ptr %12, align 8
  %22 = load ptr, ptr %9, align 8
  %23 = load i32, ptr %10, align 4
  %24 = load i32, ptr %13, align 4
  %25 = call i32 @dissect_ber_octet_string(i1 noundef zeroext %19, ptr noundef %20, ptr noundef %21, ptr noundef %22, i32 noundef %23, i32 noundef %24, ptr noundef %14)
  store i32 %25, ptr %10, align 4
  %26 = load ptr, ptr %14, align 8
  %27 = icmp ne ptr %26, null
  br i1 %27, label %30, label %28

28:                                               ; preds = %6
  %29 = load i32, ptr %10, align 4
  store i32 %29, ptr %7, align 4
  store i32 1, ptr %16, align 4
  br label %60

30:                                               ; preds = %6
  %31 = load ptr, ptr %11, align 8
  %32 = getelementptr inbounds nuw %struct._asn1_ctx_t, ptr %31, i32 0, i32 4
  %33 = load ptr, ptr %32, align 8
  %34 = load i32, ptr @ett_camel_pdptypenumber, align 4
  %35 = call ptr @proto_item_add_subtree(ptr noundef %33, i32 noundef %34)
  store ptr %35, ptr %15, align 8
  %36 = load i8, ptr @PDPTypeOrganization, align 1
  %37 = zext i8 %36 to i32
  switch i32 %37, label %57 [
    i32 0, label %58
    i32 1, label %38
  ]

38:                                               ; preds = %30
  %39 = load i8, ptr @PDPTypeNumber, align 1
  %40 = zext i8 %39 to i32
  switch i32 %40, label %55 [
    i32 33, label %41
    i32 87, label %48
  ]

41:                                               ; preds = %38
  %42 = load ptr, ptr %15, align 8
  %43 = load i32, ptr @hf_camel_PDPAddress_IPv4, align 4
  %44 = load ptr, ptr %14, align 8
  %45 = load ptr, ptr %14, align 8
  %46 = call i32 @tvb_reported_length(ptr noundef %45)
  %47 = call ptr @proto_tree_add_item(ptr noundef %42, i32 noundef %43, ptr noundef %44, i32 noundef 0, i32 noundef %46, i32 noundef 0)
  br label %56

48:                                               ; preds = %38
  %49 = load ptr, ptr %15, align 8
  %50 = load i32, ptr @hf_camel_PDPAddress_IPv6, align 4
  %51 = load ptr, ptr %14, align 8
  %52 = load ptr, ptr %14, align 8
  %53 = call i32 @tvb_reported_length(ptr noundef %52)
  %54 = call ptr @proto_tree_add_item(ptr noundef %49, i32 noundef %50, ptr noundef %51, i32 noundef 0, i32 noundef %53, i32 noundef 0)
  br label %56

55:                                               ; preds = %38
  br label %56

56:                                               ; preds = %55, %48, %41
  br label %57

57:                                               ; preds = %30, %56
  br label %58

58:                                               ; preds = %57, %30
  %59 = load i32, ptr %10, align 4
  store i32 %59, ptr %7, align 4
  store i32 1, ptr %16, align 4
  br label %60

60:                                               ; preds = %58, %28
  call void @llvm.lifetime.end.p0(i64 8, ptr %15) #11
  call void @llvm.lifetime.end.p0(i64 8, ptr %14) #11
  %61 = load i32, ptr %7, align 4
  ret i32 %61
}