; Function Attrs: null_pointer_is_valid sspstrong uwtable
define internal i32 @dissect_camel_T_pDPAddress(i1 noundef zeroext %0, ptr noundef %1, i32 noundef %2, ptr noundef %3, ptr noundef %4, i32 noundef %5) #0 {
  %7 = alloca ptr, align 8
  call void @llvm.lifetime.start.p0(i64 8, ptr nonnull %7) #12
  %8 = call i32 @dissect_ber_octet_string(i1 noundef zeroext %0, ptr noundef %3, ptr noundef %4, ptr noundef %1, i32 noundef %2, i32 noundef %5, ptr noundef nonnull %7)
  %9 = load ptr, ptr %7, align 8
  %.not = icmp eq ptr %9, null
  br i1 %.not, label %23, label %10

10:                                               ; preds = %6
  %11 = getelementptr inbounds nuw i8, ptr %3, i64 24
  %12 = load ptr, ptr %11, align 8
  %13 = load i32, ptr @ett_camel_pdptypenumber, align 4
  %14 = call ptr @proto_item_add_subtree(ptr noundef %12, i32 noundef %13)
  %15 = load i8, ptr @PDPTypeOrganization, align 1
  %cond = icmp eq i8 %15, 1
  br i1 %cond, label %16, label %23

16:                                               ; preds = %10
  %17 = load i8, ptr @PDPTypeNumber, align 1
  switch i8 %17, label %23 [
    i8 33, label %.sink.split
    i8 87, label %18
  ]

18:                                               ; preds = %16
  br label %.sink.split

.sink.split:                                      ; preds = %16, %18
  %hf_camel_PDPAddress_IPv4.sink = phi ptr [ @hf_camel_PDPAddress_IPv6, %18 ], [ @hf_camel_PDPAddress_IPv4, %16 ]
  %19 = load i32, ptr %hf_camel_PDPAddress_IPv4.sink, align 4
  %20 = load ptr, ptr %7, align 8
  %21 = call i32 @tvb_reported_length(ptr noundef %20)
  %22 = call ptr @proto_tree_add_item(ptr noundef %14, i32 noundef %19, ptr noundef %20, i32 noundef 0, i32 noundef %21, i32 noundef 0)
  br label %23

23:                                               ; preds = %.sink.split, %16, %10, %6
  call void @llvm.lifetime.end.p0(i64 8, ptr nonnull %7) #12
  ret i32 %8
}